target datalayout = "e-m:e-p270:32:32-p271:32:32-p272:64:64-i64:64-i128:128-f80:128-n8:16:32:64-S128"
target triple = "x86_64-pc-linux-gnu"

%struct._object = type { %union.anon, ptr }
%union.anon = type { i64 }
%struct.PyModuleObject = type { %struct._object, ptr, ptr, ptr, ptr, ptr }
%struct.PyModuleDef = type { %struct.PyModuleDef_Base, ptr, ptr, i64, ptr, ptr, ptr, ptr, ptr }
%struct.PyModuleDef_Base = type { %struct._object, ptr, i64, ptr }

; Function Attrs: nounwind uwtable
define internal i32 @module_traverse(ptr noundef %0, ptr noundef %1, ptr noundef %2) #0 {
  %4 = alloca i32, align 4
  %5 = alloca ptr, align 8
  %6 = alloca ptr, align 8
  %7 = alloca ptr, align 8
  %8 = alloca ptr, align 8
  %9 = alloca i32, align 4
  %10 = alloca i32, align 4
  %11 = alloca i32, align 4
  store ptr %0, ptr %5, align 8, !tbaa !4
  store ptr %1, ptr %6, align 8, !tbaa !9
  store ptr %2, ptr %7, align 8, !tbaa !9
  call void @llvm.lifetime.start.p0(i64 8, ptr %8) #9
  %12 = load ptr, ptr %5, align 8, !tbaa !4
  store ptr %12, ptr %8, align 8, !tbaa !9
  %13 = load ptr, ptr %8, align 8, !tbaa !9
  %14 = getelementptr inbounds nuw %struct.PyModuleObject, ptr %13, i32 0, i32 2
  %15 = load ptr, ptr %14, align 8, !tbaa !10
  %16 = icmp ne ptr %15, null
  br i1 %16, label %17, label %54

17:                                               ; preds = %3
  %18 = load ptr, ptr %8, align 8, !tbaa !9
  %19 = getelementptr inbounds nuw %struct.PyModuleObject, ptr %18, i32 0, i32 2
  %20 = load ptr, ptr %19, align 8, !tbaa !10
  %21 = getelementptr inbounds nuw %struct.PyModuleDef, ptr %20, i32 0, i32 6
  %22 = load ptr, ptr %21, align 8, !tbaa !128
  %23 = icmp ne ptr %22, null
  br i1 %23, label %24, label %54

24:                                               ; preds = %17
  %25 = load ptr, ptr %8, align 8, !tbaa !9
  %26 = getelementptr inbounds nuw %struct.PyModuleObject, ptr %25, i32 0, i32 2
  %27 = load ptr, ptr %26, align 8, !tbaa !10
  %28 = getelementptr inbounds nuw %struct.PyModuleDef, ptr %27, i32 0, i32 3
  %29 = load i64, ptr %28, align 8, !tbaa !49
  %30 = icmp sle i64 %29, 0
  br i1 %30, label %36, label %31

31:                                               ; preds = %24
  %32 = load ptr, ptr %8, align 8, !tbaa !9
  %33 = getelementptr inbounds nuw %struct.PyModuleObject, ptr %32, i32 0, i32 3
  %34 = load ptr, ptr %33, align 8, !tbaa !29
  %35 = icmp ne ptr %34, null
  br i1 %35, label %36, label %54

36:                                               ; preds = %31, %24
  call void @llvm.lifetime.start.p0(i64 4, ptr %9) #9
  %37 = load ptr, ptr %8, align 8, !tbaa !9
  %38 = getelementptr inbounds nuw %struct.PyModuleObject, ptr %37, i32 0, i32 2
  %39 = load ptr, ptr %38, align 8, !tbaa !10
  %40 = getelementptr inbounds nuw %struct.PyModuleDef, ptr %39, i32 0, i32 6
  %41 = load ptr, ptr %40, align 8, !tbaa !128
  %42 = load ptr, ptr %8, align 8, !tbaa !9
  %43 = load ptr, ptr %6, align 8, !tbaa !9
  %44 = load ptr, ptr %7, align 8, !tbaa !9
  %45 = call i32 %41(ptr noundef %42, ptr noundef %43, ptr noundef %44)
  store i32 %45, ptr %9, align 4, !tbaa !35
  %46 = load i32, ptr %9, align 4, !tbaa !35
  %47 = icmp ne i32 %46, 0
  br i1 %47, label %48, label %50

48:                                               ; preds = %36
  %49 = load i32, ptr %9, align 4, !tbaa !35
  store i32 %49, ptr %4, align 4
  store i32 1, ptr %10, align 4
  br label %51

50:                                               ; preds = %36
  store i32 0, ptr %10, align 4
  br label %51

51:                                               ; preds = %50, %48
  call void @llvm.lifetime.end.p0(i64 4, ptr %9) #9
  %52 = load i32, ptr %10, align 4
  switch i32 %52, label %78 [
    i32 0, label %53
  ]

53:                                               ; preds = %51
  br label %54

54:                                               ; preds = %53, %31, %17, %3
  br label %55

55:                                               ; preds = %54
  %56 = load ptr, ptr %8, align 8, !tbaa !9
  %57 = getelementptr inbounds nuw %struct.PyModuleObject, ptr %56, i32 0, i32 1
  %58 = load ptr, ptr %57, align 8, !tbaa !28
  %59 = icmp ne ptr %58, null
  br i1 %59, label %60, label %75

60:                                               ; preds = %55
  call void @llvm.lifetime.start.p0(i64 4, ptr %11) #9
  %61 = load ptr, ptr %6, align 8, !tbaa !9
  %62 = load ptr, ptr %8, align 8, !tbaa !9
  %63 = getelementptr inbounds nuw %struct.PyModuleObject, ptr %62, i32 0, i32 1
  %64 = load ptr, ptr %63, align 8, !tbaa !28
  %65 = load ptr, ptr %7, align 8, !tbaa !9
  %66 = call i32 %61(ptr noundef %64, ptr noundef %65)
  store i32 %66, ptr %11, align 4, !tbaa !35
  %67 = load i32, ptr %11, align 4, !tbaa !35
  %68 = icmp ne i32 %67, 0
  br i1 %68, label %69, label %71

69:                                               ; preds = %60
  %70 = load i32, ptr %11, align 4, !tbaa !35
  store i32 %70, ptr %4, align 4
  store i32 1, ptr %10, align 4
  br label %72

71:                                               ; preds = %60
  store i32 0, ptr %10, align 4
  br label %72

72:                                               ; preds = %71, %69
  call void @llvm.lifetime.end.p0(i64 4, ptr %11) #9
  %73 = load i32, ptr %10, align 4
  switch i32 %73, label %78 [
    i32 0, label %74
  ]

74:                                               ; preds = %72
  br label %75

75:                                               ; preds = %74, %55
  br label %76

76:                                               ; preds = %75
  br label %77

77:                                               ; preds = %76
  store i32 0, ptr %4, align 4
  store i32 1, ptr %10, align 4
  br label %78

78:                                               ; preds = %77, %72, %51
  call void @llvm.lifetime.end.p0(i64 8, ptr %8) #9
  %79 = load i32, ptr %4, align 4
  ret i32 %79
}