; Function Attrs: nounwind uwtable
define internal i32 @module_traverse(ptr noundef %0, ptr noundef %1, ptr noundef %2) #0 {
  %4 = getelementptr inbounds nuw i8, ptr %0, i64 24
  %5 = load ptr, ptr %4, align 8, !tbaa !10
  %.not = icmp eq ptr %5, null
  br i1 %.not, label %18, label %6

6:                                                ; preds = %3
  %7 = getelementptr inbounds nuw i8, ptr %5, i64 80
  %8 = load ptr, ptr %7, align 8, !tbaa !201
  %.not24 = icmp eq ptr %8, null
  br i1 %.not24, label %18, label %9

9:                                                ; preds = %6
  %10 = getelementptr inbounds nuw i8, ptr %5, i64 56
  %11 = load i64, ptr %10, align 8, !tbaa !39
  %12 = icmp slt i64 %11, 1
  br i1 %12, label %16, label %13

13:                                               ; preds = %9
  %14 = getelementptr inbounds nuw i8, ptr %0, i64 32
  %15 = load ptr, ptr %14, align 8, !tbaa !40
  %.not25 = icmp eq ptr %15, null
  br i1 %.not25, label %18, label %16

16:                                               ; preds = %13, %9
  %17 = tail call i32 %8(ptr noundef nonnull %0, ptr noundef %1, ptr noundef %2) #8
  %.not26 = icmp eq i32 %17, 0
  br i1 %.not26, label %18, label %24

18:                                               ; preds = %3, %6, %13, %16
  %19 = getelementptr inbounds nuw i8, ptr %0, i64 16
  %20 = load ptr, ptr %19, align 8, !tbaa !23
  %.not27 = icmp eq ptr %20, null
  br i1 %.not27, label %23, label %21

21:                                               ; preds = %18
  %22 = tail call i32 %1(ptr noundef nonnull %20, ptr noundef %2) #8
  %.not28 = icmp eq i32 %22, 0
  br i1 %.not28, label %23, label %24

23:                                               ; preds = %21, %18
  br label %24

24:                                               ; preds = %16, %21, %23
  %.1 = phi i32 [ 0, %23 ], [ %22, %21 ], [ %17, %16 ]
  ret i32 %.1
}